target datalayout = "e-m:e-p270:32:32-p271:32:32-p272:64:64-i64:64-i128:128-f80:128-n8:16:32:64-S128"
target triple = "x86_64-pc-linux-gnu"

%struct._generic_SUNAdaptController = type { ptr, ptr, ptr }
%struct._SUNAdaptControllerContent_Soderlind = type { double, double, double, double, double, double, double, double, double, double, i32 }

; Function Attrs: nounwind uwtable
define i32 @SUNAdaptController_SetDefaults_Soderlind(ptr noundef %0) #0 {
  %2 = alloca ptr, align 8
  %3 = alloca ptr, align 8
  store ptr %0, ptr %2, align 8, !tbaa !8
  call void @llvm.lifetime.start.p0(i64 8, ptr %3) #5
  %4 = load ptr, ptr %2, align 8, !tbaa !8
  %5 = getelementptr inbounds nuw %struct._generic_SUNAdaptController, ptr %4, i32 0, i32 2
  %6 = load ptr, ptr %5, align 8, !tbaa !31
  store ptr %6, ptr %3, align 8, !tbaa !3
  %7 = load ptr, ptr %2, align 8, !tbaa !8
  %8 = getelementptr inbounds nuw %struct._generic_SUNAdaptController, ptr %7, i32 0, i32 0
  %9 = load ptr, ptr %8, align 8, !tbaa !24
  %10 = getelementptr inbounds nuw %struct._SUNAdaptControllerContent_Soderlind, ptr %9, i32 0, i32 0
  store double 1.250000e+00, ptr %10, align 8, !tbaa !32
  %11 = load ptr, ptr %2, align 8, !tbaa !8
  %12 = getelementptr inbounds nuw %struct._generic_SUNAdaptController, ptr %11, i32 0, i32 0
  %13 = load ptr, ptr %12, align 8, !tbaa !24
  %14 = getelementptr inbounds nuw %struct._SUNAdaptControllerContent_Soderlind, ptr %13, i32 0, i32 1
  store double 5.000000e-01, ptr %14, align 8, !tbaa !34
  %15 = load ptr, ptr %2, align 8, !tbaa !8
  %16 = getelementptr inbounds nuw %struct._generic_SUNAdaptController, ptr %15, i32 0, i32 0
  %17 = load ptr, ptr %16, align 8, !tbaa !24
  %18 = getelementptr inbounds nuw %struct._SUNAdaptControllerContent_Soderlind, ptr %17, i32 0, i32 2
  store double -7.500000e-01, ptr %18, align 8, !tbaa !35
  %19 = load ptr, ptr %2, align 8, !tbaa !8
  %20 = getelementptr inbounds nuw %struct._generic_SUNAdaptController, ptr %19, i32 0, i32 0
  %21 = load ptr, ptr %20, align 8, !tbaa !24
  %22 = getelementptr inbounds nuw %struct._SUNAdaptControllerContent_Soderlind, ptr %21, i32 0, i32 3
  store double 2.500000e-01, ptr %22, align 8, !tbaa !36
  %23 = load ptr, ptr %2, align 8, !tbaa !8
  %24 = getelementptr inbounds nuw %struct._generic_SUNAdaptController, ptr %23, i32 0, i32 0
  %25 = load ptr, ptr %24, align 8, !tbaa !24
  %26 = getelementptr inbounds nuw %struct._SUNAdaptControllerContent_Soderlind, ptr %25, i32 0, i32 4
  store double 7.500000e-01, ptr %26, align 8, !tbaa !37
  %27 = load ptr, ptr %2, align 8, !tbaa !8
  %28 = getelementptr inbounds nuw %struct._generic_SUNAdaptController, ptr %27, i32 0, i32 0
  %29 = load ptr, ptr %28, align 8, !tbaa !24
  %30 = getelementptr inbounds nuw %struct._SUNAdaptControllerContent_Soderlind, ptr %29, i32 0, i32 5
  store double 1.500000e+00, ptr %30, align 8, !tbaa !38
  call void @llvm.lifetime.end.p0(i64 8, ptr %3) #5
  ret i32 0
}