; Function Attrs: mustprogress nofree norecurse nosync nounwind willreturn memory(write, argmem: readwrite, inaccessiblemem: none) uwtable
define noundef i32 @SUNAdaptController_SetDefaults_Soderlind(ptr noundef readonly captures(none) %0) #3 {
  %2 = load ptr, ptr %0, align 8, !tbaa !19
  store double 1.250000e+00, ptr %2, align 8, !tbaa !20
  %3 = getelementptr inbounds nuw i8, ptr %2, i64 8
  store double 5.000000e-01, ptr %3, align 8, !tbaa !24
  %4 = getelementptr inbounds nuw i8, ptr %2, i64 16
  store double -7.500000e-01, ptr %4, align 8, !tbaa !25
  %5 = getelementptr inbounds nuw i8, ptr %2, i64 24
  store double 2.500000e-01, ptr %5, align 8, !tbaa !26
  %6 = getelementptr inbounds nuw i8, ptr %2, i64 32
  store double 7.500000e-01, ptr %6, align 8, !tbaa !27
  %7 = getelementptr inbounds nuw i8, ptr %2, i64 40
  store double 1.500000e+00, ptr %7, align 8, !tbaa !28
  ret i32 0
}